; Function Attrs: mustprogress nofree norecurse nosync nounwind willreturn memory(argmem: read) uwtable
define dso_local i64 @brin_minmax_multi_distance_date(ptr noundef readonly captures(none) %0) local_unnamed_addr #3 {
  %2 = getelementptr inbounds nuw i8, ptr %0, i64 32
  %3 = load i64, ptr %2, align 8
  %4 = trunc i64 %3 to i32
  %5 = getelementptr inbounds nuw i8, ptr %0, i64 48
  %6 = load i64, ptr %5, align 8
  %7 = trunc i64 %6 to i32
  %8 = sitofp i32 %7 to double
  %9 = sitofp i32 %4 to double
  %10 = fsub double %8, %9
  %11 = bitcast double %10 to i64
  ret i64 %11
}